; Function Attrs: nounwind uwtable
define nonnull ptr @l_Lean_IR_Borrow_OwnedSet_beq___boxed(ptr noundef %0, ptr noundef %1) #1 {
  %3 = getelementptr inbounds nuw i8, ptr %0, i64 8
  %4 = load ptr, ptr %3, align 8, !tbaa !9
  %5 = getelementptr inbounds nuw i8, ptr %0, i64 16
  %6 = load ptr, ptr %5, align 8, !tbaa !9
  %7 = getelementptr inbounds nuw i8, ptr %1, i64 8
  %8 = load ptr, ptr %7, align 8, !tbaa !9
  %9 = getelementptr inbounds nuw i8, ptr %1, i64 16
  %10 = load ptr, ptr %9, align 8, !tbaa !9
  %11 = tail call zeroext i8 @lean_name_eq(ptr noundef %4, ptr noundef %8) #6
  %12 = icmp eq i8 %11, 0
  br i1 %12, label %l_Lean_IR_Borrow_OwnedSet_beq.exit, label %13

13:                                               ; preds = %2
  %14 = ptrtoint ptr %6 to i64
  %15 = and i64 %14, 1
  %16 = icmp ne i64 %15, 0
  %17 = ptrtoint ptr %10 to i64
  %18 = and i64 %17, 1
  %19 = icmp ne i64 %18, 0
  %or.cond.i = select i1 %16, i1 %19, i1 false
  br i1 %or.cond.i, label %20, label %.critedge.i.i, !prof !12

20:                                               ; preds = %13
  %21 = icmp eq ptr %6, %10
  br label %lean_nat_eq.exit.i

.critedge.i.i:                                    ; preds = %13
  %22 = tail call zeroext i1 @lean_nat_big_eq(ptr noundef %6, ptr noundef %10) #6
  br label %lean_nat_eq.exit.i

lean_nat_eq.exit.i:                               ; preds = %.critedge.i.i, %20
  %.0.i.i = phi i1 [ %21, %20 ], [ %22, %.critedge.i.i ]
  %23 = select i1 %.0.i.i, i64 3, i64 1
  br label %l_Lean_IR_Borrow_OwnedSet_beq.exit

l_Lean_IR_Borrow_OwnedSet_beq.exit:               ; preds = %2, %lean_nat_eq.exit.i
  %.0.i = phi i64 [ %23, %lean_nat_eq.exit.i ], [ 1, %2 ]
  %24 = ptrtoint ptr %1 to i64
  %25 = and i64 %24, 1
  %.not = icmp eq i64 %25, 0
  br i1 %.not, label %26, label %lean_dec.exit

26:                                               ; preds = %l_Lean_IR_Borrow_OwnedSet_beq.exit
  %27 = load i32, ptr %1, align 4, !tbaa !4
  %28 = icmp sgt i32 %27, 1
  br i1 %28, label %29, label %31, !prof !11

29:                                               ; preds = %26
  %30 = add nsw i32 %27, -1
  store i32 %30, ptr %1, align 4, !tbaa !4
  br label %lean_dec.exit

31:                                               ; preds = %26
  %.not.i6 = icmp eq i32 %27, 0
  br i1 %.not.i6, label %lean_dec.exit, label %32

32:                                               ; preds = %31
  tail call void @lean_dec_ref_cold(ptr noundef nonnull %1) #6
  br label %lean_dec.exit

lean_dec.exit:                                    ; preds = %32, %31, %29, %l_Lean_IR_Borrow_OwnedSet_beq.exit
  %33 = ptrtoint ptr %0 to i64
  %34 = and i64 %33, 1
  %.not8 = icmp eq i64 %34, 0
  br i1 %.not8, label %35, label %lean_dec.exit5

35:                                               ; preds = %lean_dec.exit
  %36 = load i32, ptr %0, align 4, !tbaa !4
  %37 = icmp sgt i32 %36, 1
  br i1 %37, label %38, label %40, !prof !11

38:                                               ; preds = %35
  %39 = add nsw i32 %36, -1
  store i32 %39, ptr %0, align 4, !tbaa !4
  br label %lean_dec.exit5

40:                                               ; preds = %35
  %.not.i = icmp eq i32 %36, 0
  br i1 %.not.i, label %lean_dec.exit5, label %41

41:                                               ; preds = %40
  tail call void @lean_dec_ref_cold(ptr noundef nonnull %0) #6
  br label %lean_dec.exit5

lean_dec.exit5:                                   ; preds = %41, %40, %38, %lean_dec.exit
  %42 = inttoptr i64 %.0.i to ptr
  ret ptr %42
}